; Function Attrs: mustprogress uwtable
define hidden void @_ZN4lean10mk_bin_ropERKNS_4exprES2_jPS1_(ptr dead_on_unwind noalias writable sret(%"class.lean::expr") align 8 initializes((0, 8)) %0, ptr noundef nonnull align 8 dereferenceable(8) %1, ptr noundef nonnull readonly align 8 captures(none) dereferenceable(8) %2, i32 noundef %3, ptr noundef %4) local_unnamed_addr #0 personality ptr @__gxx_personality_v0 {
  %6 = alloca %"class.lean::expr", align 8
  %7 = icmp eq i32 %3, 0
  br i1 %7, label %8, label %18

8:                                                ; preds = %5
  %9 = load ptr, ptr %2, align 8, !tbaa !3
  store ptr %9, ptr %0, align 8, !tbaa !3
  %10 = ptrtoint ptr %9 to i64
  %11 = and i64 %10, 1
  %.not.i.i.i = icmp eq i64 %11, 0
  br i1 %.not.i.i.i, label %12, label %_ZN4lean4exprC2ERKS0_.exit

12:                                               ; preds = %8
  %.val.i.i.i.i = load i32, ptr %9, align 4, !tbaa !8
  %13 = icmp sgt i32 %.val.i.i.i.i, 0
  br i1 %13, label %14, label %16, !prof !11

14:                                               ; preds = %12
  %15 = add nuw nsw i32 %.val.i.i.i.i, 1
  store i32 %15, ptr %9, align 4, !tbaa !8
  br label %_ZN4lean4exprC2ERKS0_.exit

16:                                               ; preds = %12
  %.not.i.i.i.i = icmp eq i32 %.val.i.i.i.i, 0
  br i1 %.not.i.i.i.i, label %_ZN4lean4exprC2ERKS0_.exit, label %17

17:                                               ; preds = %16
  tail call void @lean_inc_ref_cold(ptr noundef nonnull %9)
  br label %_ZN4lean4exprC2ERKS0_.exit

18:                                               ; preds = %5
  %19 = add i32 %3, -1
  %20 = zext i32 %19 to i64
  %21 = getelementptr inbounds nuw %"class.lean::expr", ptr %4, i64 %20
  %22 = load ptr, ptr %21, align 8, !tbaa !3
  store ptr %22, ptr %0, align 8, !tbaa !3
  %23 = ptrtoint ptr %22 to i64
  %24 = and i64 %23, 1
  %.not.i.i.i16 = icmp eq i64 %24, 0
  br i1 %.not.i.i.i16, label %25, label %_ZN4lean4exprC2ERKS0_.exit19

25:                                               ; preds = %18
  %.val.i.i.i.i17 = load i32, ptr %22, align 4, !tbaa !8
  %26 = icmp sgt i32 %.val.i.i.i.i17, 0
  br i1 %26, label %27, label %29, !prof !11

27:                                               ; preds = %25
  %28 = add nuw nsw i32 %.val.i.i.i.i17, 1
  store i32 %28, ptr %22, align 4, !tbaa !8
  br label %_ZN4lean4exprC2ERKS0_.exit19

29:                                               ; preds = %25
  %.not.i.i.i.i18 = icmp eq i32 %.val.i.i.i.i17, 0
  br i1 %.not.i.i.i.i18, label %_ZN4lean4exprC2ERKS0_.exit19, label %30

30:                                               ; preds = %29
  tail call void @lean_inc_ref_cold(ptr noundef nonnull %22)
  br label %_ZN4lean4exprC2ERKS0_.exit19

_ZN4lean4exprC2ERKS0_.exit19:                     ; preds = %18, %27, %29, %30
  %.not23 = icmp eq i32 %19, 0
  br i1 %.not23, label %_ZN4lean4exprC2ERKS0_.exit, label %.lr.ph

.lr.ph:                                           ; preds = %_ZN4lean4exprC2ERKS0_.exit19, %_ZN4lean10object_refD2Ev.exit
  %indvars.iv = phi i64 [ %31, %_ZN4lean10object_refD2Ev.exit ], [ %20, %_ZN4lean4exprC2ERKS0_.exit19 ]
  %31 = add nsw i64 %indvars.iv, -1
  call void @llvm.lifetime.start.p0(i64 8, ptr nonnull %6) #7
  %32 = getelementptr inbounds nuw %"class.lean::expr", ptr %4, i64 %31
  invoke void @_ZN4lean6mk_appERKNS_4exprES2_S2_(ptr dead_on_unwind nonnull writable sret(%"class.lean::expr") align 8 %6, ptr noundef nonnull align 8 dereferenceable(8) %1, ptr noundef nonnull align 8 dereferenceable(8) %32, ptr noundef nonnull align 8 dereferenceable(8) %0)
          to label %33 unwind label %45

33:                                               ; preds = %.lr.ph
  %34 = load ptr, ptr %0, align 8, !tbaa !3
  %35 = ptrtoint ptr %34 to i64
  %36 = and i64 %35, 1
  %.not.i.i.i20 = icmp eq i64 %36, 0
  br i1 %.not.i.i.i20, label %37, label %_ZN4lean10object_refD2Ev.exit

37:                                               ; preds = %33
  %38 = load i32, ptr %34, align 4, !tbaa !8
  %39 = icmp sgt i32 %38, 1
  br i1 %39, label %40, label %42, !prof !11

40:                                               ; preds = %37
  %41 = add nsw i32 %38, -1
  store i32 %41, ptr %34, align 4, !tbaa !8
  br label %_ZN4lean10object_refD2Ev.exit

42:                                               ; preds = %37
  %.not.i.i.i.i21 = icmp eq i32 %38, 0
  br i1 %.not.i.i.i.i21, label %_ZN4lean10object_refD2Ev.exit, label %43

43:                                               ; preds = %42
  invoke void @lean_dec_ref_cold(ptr noundef nonnull %34)
          to label %_ZN4lean10object_refD2Ev.exit unwind label %47

_ZN4lean10object_refD2Ev.exit:                    ; preds = %43, %33, %40, %42
  %44 = load ptr, ptr %6, align 8, !tbaa !3
  store ptr %44, ptr %0, align 8, !tbaa !3
  call void @llvm.lifetime.end.p0(i64 8, ptr nonnull %6) #7
  %.not.wide = icmp eq i64 %31, 0
  br i1 %.not.wide, label %_ZN4lean4exprC2ERKS0_.exit, label %.lr.ph, !llvm.loop !12

45:                                               ; preds = %.lr.ph
  %46 = landingpad { ptr, i32 }
          cleanup
  br label %49

47:                                               ; preds = %43
  %48 = landingpad { ptr, i32 }
          cleanup
  call void @_ZN4lean10object_refD2Ev(ptr noundef nonnull align 8 dereferenceable(8) %6) #7
  br label %49

49:                                               ; preds = %47, %45
  %.pn = phi { ptr, i32 } [ %48, %47 ], [ %46, %45 ]
  call void @llvm.lifetime.end.p0(i64 8, ptr nonnull %6) #7
  call void @_ZN4lean10object_refD2Ev(ptr noundef nonnull align 8 dereferenceable(8) %0) #7
  resume { ptr, i32 } %.pn

_ZN4lean4exprC2ERKS0_.exit:                       ; preds = %_ZN4lean10object_refD2Ev.exit, %_ZN4lean4exprC2ERKS0_.exit19, %17, %16, %14, %8
  ret void
}